Certificate Request:
    Data:
        Version: 0 (0x0)
        Subject: C=FR, ST=IDF, L=Paris, O=Local NODE-OPCUA Certificate Authority, CN=NodeOPCUA-CA
        Subject Public Key Info:
            Public Key Algorithm: rsaEncryption
                Public-Key: (2048 bit)
                Modulus:
                    00:cc:c9:d7:18:6f:52:2f:82:e6:0b:6b:73:ff:49:
                    d6:c9:86:e5:2e:9f:16:14:d2:db:4c:eb:bc:bc:ea:
                    73:be:df:6d:f7:22:31:f6:d0:00:67:3c:65:68:c1:
                    e8:04:05:bc:d7:86:96:dd:32:5d:77:bf:aa:f3:ee:
                    6d:ee:c1:7f:ce:fa:26:01:3f:e1:f9:a4:f5:bd:02:
                    1e:42:64:b3:8a:b9:5e:aa:ab:c1:6e:54:af:78:75:
                    6c:06:fd:71:16:e5:42:be:c9:65:0f:41:2a:d7:5a:
                    ba:71:cf:e1:d4:7e:b0:fd:2d:0d:29:67:eb:6d:f1:
                    2f:19:47:2b:75:b4:2c:64:82:70:50:75:c1:4c:ec:
                    42:31:d2:b6:57:74:3c:e7:f5:f8:e6:bb:36:a1:5a:
                    9c:06:33:55:f0:62:f8:0a:e0:af:6d:0f:80:83:64:
                    55:86:3e:82:4c:75:c9:3d:0b:15:15:7f:36:00:2e:
                    85:6d:9a:b5:24:d0:d3:ab:6d:97:05:a8:47:5e:6b:
                    5e:fc:a0:9e:70:71:c4:e8:df:94:d9:83:e7:3c:cb:
                    76:96:31:e6:01:2d:b4:21:c5:d1:0f:d1:3b:2e:08:
                    1f:3a:c2:4e:56:17:5a:b7:1f:14:fd:37:66:98:bb:
                    73:19:0e:6d:74:ad:80:9e:b5:4e:55:70:e6:5f:2e:
                    6d:59
                Exponent: 65537 (0x10001)
        Attributes:
        Requested Extensions:
            X509v3 Basic Constraints: critical
                CA:FALSE
            X509v3 Key Usage: 
                Digital Signature, Non Repudiation, Key Encipherment, Data Encipherment, Key Agreement
            X509v3 Subject Alternative Name: 
                URI:undefined
            Netscape Comment: 
                CA Generated by Node-OPCUA Certificate utility using openssl
    Signature Algorithm: sha256WithRSAEncryption
         03:30:2e:58:b9:17:48:e9:65:e4:ce:f6:44:48:94:33:8a:e2:
         1e:c2:a1:1e:79:1e:a6:d4:b5:4c:95:44:56:72:d7:ab:60:e0:
         2a:f0:13:c6:e3:a5:73:ea:8c:13:24:2d:77:fb:1f:1c:82:0b:
         39:18:3a:d2:93:bf:26:63:97:9e:3e:f7:ef:ee:df:cc:b9:37:
         a8:e4:13:67:76:f5:b2:17:fe:5a:fb:8d:e7:b7:bb:ee:45:d1:
         18:9c:96:e1:62:6d:78:cd:e4:14:c9:25:bf:28:39:a0:83:e5:
         5d:2d:80:8f:da:40:bf:cb:ef:a4:d9:8d:f0:76:9f:ec:76:08:
         01:77:6b:63:3b:00:f2:9b:ee:72:3b:3f:bd:93:38:6a:f1:88:
         f1:67:50:58:de:4e:df:7f:8f:ad:b3:ec:b2:7c:a6:05:17:dd:
         17:d1:58:99:8c:9c:f3:f9:b2:14:eb:48:6f:31:9d:25:d4:ed:
         da:3a:dc:29:9c:78:79:02:5b:c5:1a:48:c1:45:c2:37:3c:b0:
         c5:38:0e:3a:7c:44:ba:03:9d:ce:74:6c:03:43:0d:bc:6e:d3:
         58:09:77:5e:c3:1b:6b:ec:dc:d5:23:00:c2:cb:4f:32:49:e8:
         70:fb:df:88:70:f1:22:7f:e8:9a:6b:3b:06:a6:26:f5:d6:1d:
         8b:bd:1d:5c
-----BEGIN CERTIFICATE REQUEST-----
MIIDSjCCAjICAQAwczELMAkGA1UEBhMCRlIxDDAKBgNVBAgTA0lERjEOMAwGA1UE
BxMFUGFyaXMxLzAtBgNVBAoTJkxvY2FsIE5PREUtT1BDVUEgQ2VydGlmaWNhdGUg
QXV0aG9yaXR5MRUwEwYDVQQDEwxOb2RlT1BDVUEtQ0EwggEiMA0GCSqGSIb3DQEB
AQUAA4IBDwAwggEKAoIBAQDMydcYb1IvguYLa3P/SdbJhuUunxYU0ttM67y86nO+
3233IjH20ABnPGVowegEBbzXhpbdMl13v6rz7m3uwX/O+iYBP+H5pPW9Ah5CZLOK
uV6qq8FuVK94dWwG/XEW5UK+yWUPQSrXWrpxz+HUfrD9LQ0pZ+tt8S8ZRyt1tCxk
gnBQdcFM7EIx0rZXdDzn9fjmuzahWpwGM1XwYvgK4K9tD4CDZFWGPoJMdck9CxUV
fzYALoVtmrUk0NOrbZcFqEdea178oJ5wccTo35TZg+c8y3aWMeYBLbQhxdEP0Tsu
CB86wk5WF1q3HxT9N2aYu3MZDm10rYCetU5VcOZfLm1ZAgMBAAGggZEwgY4GCSqG
SIb3DQEJDjGBgDB+MAwGA1UdEwEB/wQCMAAwCwYDVR0PBAQDAgP4MBQGA1UdEQQN
MAuGCXVuZGVmaW5lZDBLBglghkgBhvhCAQ0EPhY8Q0EgR2VuZXJhdGVkIGJ5IE5v
ZGUtT1BDVUEgQ2VydGlmaWNhdGUgdXRpbGl0eSB1c2luZyBvcGVuc3NsMA0GCSqG
SIb3DQEBCwUAA4IBAQADMC5YuRdI6WXkzvZESJQziuIewqEeeR6m1LVMlURWcter
YOAq8BPG46Vz6owTJC13+x8cggs5GDrSk78mY5eePvfv7t/MuTeo5BNndvWyF/5a
+43nt7vuRdEYnJbhYm14zeQUySW/KDmgg+VdLYCP2kC/y++k2Y3wdp/sdggBd2tj
OwDym+5yOz+9kzhq8YjxZ1BY3k7ff4+ts+yyfKYFF90X0ViZjJzz+bIU60hvMZ0l
1O3aOtwpnHh5AlvFGkjBRcI3PLDFOA46fES6A53OdGwDQw28btNYCXdewxtr7NzV
IwDCy08ySehw+9+IcPEif+iaazsGpib11h2LvR1c
-----END CERTIFICATE REQUEST-----
