Certificate:
    Data:
        Version: 3 (0x2)
        Serial Number: 4096 (0x1000)
    Signature Algorithm: sha256WithRSAEncryption
        Issuer: C=FR, ST=IDF, L=Paris, O=Local NODE-OPCUA Certificate Authority, CN=NodeOPCUA-CA
        Validity
            Not Before: Dec 10 23:33:07 2018 GMT
            Not After : Dec  6 23:33:07 2033 GMT
        Subject: C=FR, O=NodeOPCUA, CN=NodeOPCUA
        Subject Public Key Info:
            Public Key Algorithm: rsaEncryption
                Public-Key: (2048 bit)
                Modulus:
                    00:cf:0e:56:b1:88:d7:e3:cc:85:0d:08:0a:c8:f2:
                    e3:a9:ef:28:54:8b:ce:ad:f9:d1:4f:63:8a:af:13:
                    37:12:0a:4d:43:13:ba:8f:2e:19:3b:c4:84:c6:48:
                    55:38:e4:77:d1:71:52:84:1c:4f:71:73:34:52:c5:
                    e0:6c:77:ce:69:85:57:84:7a:f1:d2:7f:65:03:b7:
                    4e:a2:81:28:7d:20:52:cf:71:4c:bb:24:ad:21:eb:
                    a6:85:f8:d9:bd:36:ba:af:22:ea:10:fe:41:9d:28:
                    8b:04:01:41:e0:5b:58:db:59:61:d3:b5:91:68:ea:
                    4d:a2:17:41:df:25:e1:38:40:81:75:6d:1a:b5:df:
                    d1:4b:23:97:bd:e8:1b:66:2c:4f:d5:0b:28:3a:bf:
                    af:df:7c:a1:9d:5e:b8:91:ab:53:a6:e1:d7:fe:1c:
                    78:7a:ec:8f:15:86:e1:64:4d:e6:bb:52:8e:61:e4:
                    94:45:44:ea:43:61:27:88:85:91:07:fd:82:ec:38:
                    36:46:4e:93:82:8e:85:d3:1d:cd:33:16:02:d4:97:
                    60:d9:dc:cb:b9:79:94:46:3b:8d:ff:4c:81:b6:03:
                    34:f8:a5:bd:54:22:bf:6f:d6:f3:f0:6c:7f:9f:d3:
                    61:63:03:22:6c:1b:31:62:ed:fc:a5:29:d6:bd:2d:
                    ee:67
                Exponent: 65537 (0x10001)
        X509v3 extensions:
            X509v3 Basic Constraints: critical
                CA:FALSE
            X509v3 Subject Key Identifier: 
                41:AE:2A:90:44:30:82:31:10:BD:87:AC:4B:6D:E6:11:2E:BE:C0:29
            X509v3 Authority Key Identifier: 
                keyid:64:72:F9:3C:CE:0F:B9:21:62:BE:17:30:A6:51:3F:FA:C6:56:CF:82
                DirName:/C=FR/ST=IDF/L=Paris/O=Local NODE-OPCUA Certificate Authority/CN=NodeOPCUA-CA
                serial:F4:92:C1:CB:F8:7C:14:63

            X509v3 Subject Alternative Name: 
                URI:urn:DIK-ZBOX:Node-OPCUA-Server, DNS:DIK-ZBOX, IP Address:91.58.138.19
            Netscape Comment: 
                OpenSSL Generated Certificate
            X509v3 Key Usage: critical
                Digital Signature, Non Repudiation, Key Encipherment, Data Encipherment, Key Agreement, Certificate Sign
            X509v3 Extended Key Usage: critical
                TLS Web Server Authentication, TLS Web Client Authentication
    Signature Algorithm: sha256WithRSAEncryption
         24:e7:dc:66:be:53:08:5f:dc:8d:90:45:0f:42:9a:25:a7:40:
         72:e5:89:02:a9:1b:f8:e2:12:07:10:b1:b2:da:81:33:f8:22:
         58:04:98:e8:f8:d9:b0:a4:f7:5e:1f:53:56:7d:40:5f:33:11:
         44:66:c1:8e:6e:00:f0:b9:ce:e8:46:4a:52:82:10:04:96:c2:
         d6:d6:b0:26:cd:d5:05:cc:d5:8c:c1:91:22:20:9f:49:11:65:
         c4:7f:40:e1:2d:34:81:77:6c:57:12:43:51:f6:46:32:45:df:
         61:2b:1d:ef:9e:24:19:de:4b:d3:8c:15:61:b5:4a:05:2e:72:
         09:9f:89:d2:88:81:36:36:2d:54:a8:7d:80:2a:5a:a6:9e:6a:
         58:c7:db:1d:d2:ca:32:88:7a:b1:60:a2:fe:38:22:d7:be:ad:
         7b:85:3c:97:27:fa:0d:55:42:3c:ef:47:b5:00:6b:bc:7d:01:
         23:4c:df:72:c6:39:56:9c:df:10:f8:79:66:19:76:3b:ed:1b:
         3f:12:79:5e:70:f1:97:92:13:87:9b:e8:bb:3c:6d:48:3f:01:
         af:9e:6a:d3:be:b1:74:73:40:98:4b:48:a2:6a:22:71:cc:09:
         90:4b:a0:95:3e:36:30:41:c2:76:c5:2e:6c:dc:77:c7:08:e4:
         29:26:e7:cf
-----BEGIN CERTIFICATE-----
MIIEnjCCA4agAwIBAgICEAAwDQYJKoZIhvcNAQELBQAwczELMAkGA1UEBhMCRlIx
DDAKBgNVBAgTA0lERjEOMAwGA1UEBxMFUGFyaXMxLzAtBgNVBAoTJkxvY2FsIE5P
REUtT1BDVUEgQ2VydGlmaWNhdGUgQXV0aG9yaXR5MRUwEwYDVQQDEwxOb2RlT1BD
VUEtQ0EwIhgPMjAxODEyMTAyMzMzMDdaGA8yMDMzMTIwNjIzMzMwN1owNTELMAkG
A1UEBhMCRlIxEjAQBgNVBAoMCU5vZGVPUENVQTESMBAGA1UEAwwJTm9kZU9QQ1VB
MIIBIjANBgkqhkiG9w0BAQEFAAOCAQ8AMIIBCgKCAQEAzw5WsYjX48yFDQgKyPLj
qe8oVIvOrfnRT2OKrxM3EgpNQxO6jy4ZO8SExkhVOOR30XFShBxPcXM0UsXgbHfO
aYVXhHrx0n9lA7dOooEofSBSz3FMuyStIeumhfjZvTa6ryLqEP5BnSiLBAFB4FtY
21lh07WRaOpNohdB3yXhOECBdW0atd/RSyOXvegbZixP1QsoOr+v33yhnV64katT
puHX/hx4euyPFYbhZE3mu1KOYeSURUTqQ2EniIWRB/2C7Dg2Rk6Tgo6F0x3NMxYC
1Jdg2dzLuXmURjuN/0yBtgM0+KW9VCK/b9bz8Gx/n9NhYwMibBsxYu38pSnWvS3u
ZwIDAQABo4IBdDCCAXAwDAYDVR0TAQH/BAIwADAdBgNVHQ4EFgQUQa4qkEQwgjEQ
vYesS23mES6+wCkwgaUGA1UdIwSBnTCBmoAUZHL5PM4PuSFivhcwplE/+sZWz4Kh
d6R1MHMxCzAJBgNVBAYTAkZSMQwwCgYDVQQIEwNJREYxDjAMBgNVBAcTBVBhcmlz
MS8wLQYDVQQKEyZMb2NhbCBOT0RFLU9QQ1VBIENlcnRpZmljYXRlIEF1dGhvcml0
eTEVMBMGA1UEAxMMTm9kZU9QQ1VBLUNBggkA9JLBy/h8FGMwOQYDVR0RBDIwMIYe
dXJuOkRJSy1aQk9YOk5vZGUtT1BDVUEtU2VydmVygghESUstWkJPWIcEWzqKEzAs
BglghkgBhvhCAQ0EHxYdT3BlblNTTCBHZW5lcmF0ZWQgQ2VydGlmaWNhdGUwDgYD
VR0PAQH/BAQDAgL8MCAGA1UdJQEB/wQWMBQGCCsGAQUFBwMBBggrBgEFBQcDAjAN
BgkqhkiG9w0BAQsFAAOCAQEAJOfcZr5TCF/cjZBFD0KaJadAcuWJAqkb+OISBxCx
stqBM/giWASY6PjZsKT3Xh9TVn1AXzMRRGbBjm4A8LnO6EZKUoIQBJbC1tawJs3V
BczVjMGRIiCfSRFlxH9A4S00gXdsVxJDUfZGMkXfYSsd754kGd5L04wVYbVKBS5y
CZ+J0oiBNjYtVKh9gCpapp5qWMfbHdLKMoh6sWCi/jgi176te4U8lyf6DVVCPO9H
tQBrvH0BI0zfcsY5VpzfEPh5Zhl2O+0bPxJ5XnDxl5ITh5vouzxtSD8Br55q076x
dHNAmEtIomoiccwJkEuglT42MEHCdsUubNx3xwjkKSbnzw==
-----END CERTIFICATE-----
