Certificate:
    Data:
        Version: 3 (0x2)
        Serial Number: 4097 (0x1001)
    Signature Algorithm: sha256WithRSAEncryption
        Issuer: C=FR, ST=IDF, L=Paris, O=Local NODE-OPCUA Certificate Authority, CN=NodeOPCUA-CA
        Validity
            Not Before: Dec 11 00:31:09 2018 GMT
            Not After : Dec  7 00:31:09 2033 GMT
        Subject: C=FR, O=NodeOPCUA, CN=NodeOPCUA
        Subject Public Key Info:
            Public Key Algorithm: rsaEncryption
                Public-Key: (2048 bit)
                Modulus:
                    00:cf:0e:56:b1:88:d7:e3:cc:85:0d:08:0a:c8:f2:
                    e3:a9:ef:28:54:8b:ce:ad:f9:d1:4f:63:8a:af:13:
                    37:12:0a:4d:43:13:ba:8f:2e:19:3b:c4:84:c6:48:
                    55:38:e4:77:d1:71:52:84:1c:4f:71:73:34:52:c5:
                    e0:6c:77:ce:69:85:57:84:7a:f1:d2:7f:65:03:b7:
                    4e:a2:81:28:7d:20:52:cf:71:4c:bb:24:ad:21:eb:
                    a6:85:f8:d9:bd:36:ba:af:22:ea:10:fe:41:9d:28:
                    8b:04:01:41:e0:5b:58:db:59:61:d3:b5:91:68:ea:
                    4d:a2:17:41:df:25:e1:38:40:81:75:6d:1a:b5:df:
                    d1:4b:23:97:bd:e8:1b:66:2c:4f:d5:0b:28:3a:bf:
                    af:df:7c:a1:9d:5e:b8:91:ab:53:a6:e1:d7:fe:1c:
                    78:7a:ec:8f:15:86:e1:64:4d:e6:bb:52:8e:61:e4:
                    94:45:44:ea:43:61:27:88:85:91:07:fd:82:ec:38:
                    36:46:4e:93:82:8e:85:d3:1d:cd:33:16:02:d4:97:
                    60:d9:dc:cb:b9:79:94:46:3b:8d:ff:4c:81:b6:03:
                    34:f8:a5:bd:54:22:bf:6f:d6:f3:f0:6c:7f:9f:d3:
                    61:63:03:22:6c:1b:31:62:ed:fc:a5:29:d6:bd:2d:
                    ee:67
                Exponent: 65537 (0x10001)
        X509v3 extensions:
            X509v3 Basic Constraints: critical
                CA:FALSE
            X509v3 Subject Key Identifier: 
                41:AE:2A:90:44:30:82:31:10:BD:87:AC:4B:6D:E6:11:2E:BE:C0:29
            X509v3 Authority Key Identifier: 
                keyid:64:72:F9:3C:CE:0F:B9:21:62:BE:17:30:A6:51:3F:FA:C6:56:CF:82
                DirName:/C=FR/ST=IDF/L=Paris/O=Local NODE-OPCUA Certificate Authority/CN=NodeOPCUA-CA
                serial:F4:92:C1:CB:F8:7C:14:63

            X509v3 Subject Alternative Name: 
                URI:urn:DIK-ZBOX:Node-OPCUA-Server, DNS:DIK-ZBOX, IP Address:178.203.232.145
            Netscape Comment: 
                OpenSSL Generated Certificate
            X509v3 Key Usage: critical
                Digital Signature, Non Repudiation, Key Encipherment, Data Encipherment, Key Agreement, Certificate Sign
            X509v3 Extended Key Usage: critical
                TLS Web Server Authentication, TLS Web Client Authentication
    Signature Algorithm: sha256WithRSAEncryption
         4b:2b:3a:98:1d:21:8c:e9:89:3a:8d:4e:13:6d:5f:98:9f:85:
         6d:79:9f:54:ba:9f:6a:07:99:7c:bf:89:e0:99:ab:3b:66:73:
         9c:26:26:e6:6e:15:0b:f3:01:4e:0f:bc:cf:f7:c4:9e:cc:71:
         ef:24:a8:80:f8:e5:4f:9c:73:44:66:47:56:29:16:86:59:bd:
         2c:ff:54:97:6b:7c:46:ca:dd:ae:89:1a:2f:fc:90:0b:fe:cd:
         9b:7b:92:1c:13:4f:d2:b5:c3:62:ba:37:9e:fd:3d:05:49:78:
         88:3a:56:ee:1b:73:30:ac:46:b4:8c:18:9d:32:2d:1d:39:12:
         39:3d:05:fc:b7:1b:4e:e8:b6:ec:90:5e:bd:12:be:37:87:85:
         75:94:ee:fb:07:1c:7d:39:d6:9c:e7:a3:82:53:ad:e0:20:19:
         51:2d:81:da:78:7a:4b:46:47:97:86:b0:26:15:8d:f3:5e:42:
         2c:ca:3e:57:3e:cb:c1:ab:1d:cb:d6:ce:0a:a5:9e:dd:f6:27:
         63:b8:05:bc:2e:0f:94:ae:6e:92:07:46:c9:0d:73:c9:98:49:
         f4:90:73:3e:37:83:2f:7f:5b:da:d8:35:a6:ac:09:c2:d7:f2:
         27:77:cf:70:4a:10:1e:98:7a:67:05:50:ff:f8:fc:69:df:28:
         c1:b5:08:7e
-----BEGIN CERTIFICATE-----
MIIEnjCCA4agAwIBAgICEAEwDQYJKoZIhvcNAQELBQAwczELMAkGA1UEBhMCRlIx
DDAKBgNVBAgTA0lERjEOMAwGA1UEBxMFUGFyaXMxLzAtBgNVBAoTJkxvY2FsIE5P
REUtT1BDVUEgQ2VydGlmaWNhdGUgQXV0aG9yaXR5MRUwEwYDVQQDEwxOb2RlT1BD
VUEtQ0EwIhgPMjAxODEyMTEwMDMxMDlaGA8yMDMzMTIwNzAwMzEwOVowNTELMAkG
A1UEBhMCRlIxEjAQBgNVBAoMCU5vZGVPUENVQTESMBAGA1UEAwwJTm9kZU9QQ1VB
MIIBIjANBgkqhkiG9w0BAQEFAAOCAQ8AMIIBCgKCAQEAzw5WsYjX48yFDQgKyPLj
qe8oVIvOrfnRT2OKrxM3EgpNQxO6jy4ZO8SExkhVOOR30XFShBxPcXM0UsXgbHfO
aYVXhHrx0n9lA7dOooEofSBSz3FMuyStIeumhfjZvTa6ryLqEP5BnSiLBAFB4FtY
21lh07WRaOpNohdB3yXhOECBdW0atd/RSyOXvegbZixP1QsoOr+v33yhnV64katT
puHX/hx4euyPFYbhZE3mu1KOYeSURUTqQ2EniIWRB/2C7Dg2Rk6Tgo6F0x3NMxYC
1Jdg2dzLuXmURjuN/0yBtgM0+KW9VCK/b9bz8Gx/n9NhYwMibBsxYu38pSnWvS3u
ZwIDAQABo4IBdDCCAXAwDAYDVR0TAQH/BAIwADAdBgNVHQ4EFgQUQa4qkEQwgjEQ
vYesS23mES6+wCkwgaUGA1UdIwSBnTCBmoAUZHL5PM4PuSFivhcwplE/+sZWz4Kh
d6R1MHMxCzAJBgNVBAYTAkZSMQwwCgYDVQQIEwNJREYxDjAMBgNVBAcTBVBhcmlz
MS8wLQYDVQQKEyZMb2NhbCBOT0RFLU9QQ1VBIENlcnRpZmljYXRlIEF1dGhvcml0
eTEVMBMGA1UEAxMMTm9kZU9QQ1VBLUNBggkA9JLBy/h8FGMwOQYDVR0RBDIwMIYe
dXJuOkRJSy1aQk9YOk5vZGUtT1BDVUEtU2VydmVygghESUstWkJPWIcEssvokTAs
BglghkgBhvhCAQ0EHxYdT3BlblNTTCBHZW5lcmF0ZWQgQ2VydGlmaWNhdGUwDgYD
VR0PAQH/BAQDAgL8MCAGA1UdJQEB/wQWMBQGCCsGAQUFBwMBBggrBgEFBQcDAjAN
BgkqhkiG9w0BAQsFAAOCAQEASys6mB0hjOmJOo1OE21fmJ+FbXmfVLqfageZfL+J
4JmrO2ZznCYm5m4VC/MBTg+8z/fEnsxx7ySogPjlT5xzRGZHVikWhlm9LP9Ul2t8
RsrdrokaL/yQC/7Nm3uSHBNP0rXDYro3nv09BUl4iDpW7htzMKxGtIwYnTItHTkS
OT0F/LcbTui27JBevRK+N4eFdZTu+wccfTnWnOejglOt4CAZUS2B2nh6S0ZHl4aw
JhWN815CLMo+Vz7Lwasdy9bOCqWe3fYnY7gFvC4PlK5ukgdGyQ1zyZhJ9JBzPjeD
L39b2tg1pqwJwtfyJ3fPcEoQHph6ZwVQ//j8ad8owbUIfg==
-----END CERTIFICATE-----
